target datalayout = "e-m:e-p270:32:32-p271:32:32-p272:64:64-i64:64-i128:128-f80:128-n8:16:32:64-S128"
target triple = "x86_64-pc-linux-gnu"

%struct.WaveFile = type { %struct.WaveChunk, %struct.WaveFormat, %struct.WaveFact, i64, ptr, i32, i32, i32 }
%struct.WaveChunk = type { i32, i32, i64, ptr, i64 }
%struct.WaveFormat = type { i16, i16, i16, i32, i32, i16, i16, i16, i16, i32, i32, [16 x i8] }
%struct.WaveFact = type { i32, i32 }

@.str.40 = private unnamed_addr constant [47 x i8] c"Missing wBitsPerSample field in WAVE fmt chunk\00", align 1
@.str.42 = private unnamed_addr constant [27 x i8] c"Invalid number of channels\00", align 1
@.str.43 = private unnamed_addr constant [20 x i8] c"Invalid sample rate\00", align 1
@.str.44 = private unnamed_addr constant [32 x i8] c"Sample rate exceeds limit of %d\00", align 1
@.str.45 = private unnamed_addr constant [32 x i8] c"Invalid fact chunk in WAVE file\00", align 1
@.str.46 = private unnamed_addr constant [32 x i8] c"Missing fact chunk in WAVE file\00", align 1
@.str.47 = private unnamed_addr constant [24 x i8] c"Invalid bits per sample\00", align 1
@.str.48 = private unnamed_addr constant [27 x i8] c"MPEG formats not supported\00", align 1
@.str.49 = private unnamed_addr constant [74 x i8] c"Unknown WAVE format GUID: %08x-%04x-%04x-%02x%02x%02x%02x%02x%02x%02x%02x\00", align 1
@.str.50 = private unnamed_addr constant [32 x i8] c"Unknown WAVE format tag: 0x%04x\00", align 1

; Function Attrs: nounwind uwtable
define internal zeroext i1 @WaveCheckFormat(ptr noundef %0, i64 noundef %1) #0 {
  %3 = alloca i1, align 1
  %4 = alloca ptr, align 8
  %5 = alloca i64, align 8
  %6 = alloca ptr, align 8
  %7 = alloca i32, align 4
  %8 = alloca i32, align 4
  %9 = alloca i32, align 4
  %10 = alloca ptr, align 8
  %11 = alloca ptr, align 8
  %12 = alloca i32, align 4
  %13 = alloca i32, align 4
  %14 = alloca i32, align 4
  store ptr %0, ptr %4, align 8
  store i64 %1, ptr %5, align 8
  call void @llvm.lifetime.start.p0(i64 8, ptr %6) #7
  %15 = load ptr, ptr %4, align 8
  %16 = getelementptr inbounds nuw %struct.WaveFile, ptr %15, i32 0, i32 1
  store ptr %16, ptr %6, align 8
  %17 = load ptr, ptr %6, align 8
  %18 = getelementptr inbounds nuw %struct.WaveFormat, ptr %17, i32 0, i32 2
  %19 = load i16, ptr %18, align 4
  %20 = zext i16 %19 to i32
  %21 = icmp eq i32 %20, 0
  br i1 %21, label %22, label %24

22:                                               ; preds = %2
  %23 = call zeroext i1 (ptr, ...) @SDL_SetError_REAL(ptr noundef @.str.42)
  store i1 %23, ptr %3, align 1
  store i32 1, ptr %7, align 4
  br label %255

24:                                               ; preds = %2
  %25 = load ptr, ptr %6, align 8
  %26 = getelementptr inbounds nuw %struct.WaveFormat, ptr %25, i32 0, i32 3
  %27 = load i32, ptr %26, align 4
  %28 = icmp eq i32 %27, 0
  br i1 %28, label %29, label %31

29:                                               ; preds = %24
  %30 = call zeroext i1 (ptr, ...) @SDL_SetError_REAL(ptr noundef @.str.43)
  store i1 %30, ptr %3, align 1
  store i32 1, ptr %7, align 4
  br label %255

31:                                               ; preds = %24
  %32 = load ptr, ptr %6, align 8
  %33 = getelementptr inbounds nuw %struct.WaveFormat, ptr %32, i32 0, i32 3
  %34 = load i32, ptr %33, align 4
  %35 = icmp ugt i32 %34, 2147483647
  br i1 %35, label %36, label %38

36:                                               ; preds = %31
  %37 = call zeroext i1 (ptr, ...) @SDL_SetError_REAL(ptr noundef @.str.44, i32 noundef 2147483647)
  store i1 %37, ptr %3, align 1
  store i32 1, ptr %7, align 4
  br label %255

38:                                               ; preds = %31
  br label %39

39:                                               ; preds = %38
  %40 = load ptr, ptr %4, align 8
  %41 = getelementptr inbounds nuw %struct.WaveFile, ptr %40, i32 0, i32 7
  %42 = load i32, ptr %41, align 8
  %43 = icmp eq i32 %42, 2
  br i1 %43, label %44, label %52

44:                                               ; preds = %39
  %45 = load ptr, ptr %4, align 8
  %46 = getelementptr inbounds nuw %struct.WaveFile, ptr %45, i32 0, i32 2
  %47 = getelementptr inbounds nuw %struct.WaveFact, ptr %46, i32 0, i32 0
  %48 = load i32, ptr %47, align 8
  %49 = icmp eq i32 %48, -1
  br i1 %49, label %50, label %52

50:                                               ; preds = %44
  %51 = call zeroext i1 (ptr, ...) @SDL_SetError_REAL(ptr noundef @.str.45)
  store i1 %51, ptr %3, align 1
  store i32 1, ptr %7, align 4
  br label %255

52:                                               ; preds = %44, %39
  %53 = load ptr, ptr %6, align 8
  %54 = getelementptr inbounds nuw %struct.WaveFormat, ptr %53, i32 0, i32 1
  %55 = load i16, ptr %54, align 2
  %56 = zext i16 %55 to i32
  switch i32 %56, label %128 [
    i32 3, label %57
    i32 6, label %57
    i32 7, label %57
    i32 2, label %57
    i32 17, label %57
    i32 1, label %71
  ]

57:                                               ; preds = %52, %52, %52, %52, %52
  %58 = load ptr, ptr %4, align 8
  %59 = getelementptr inbounds nuw %struct.WaveFile, ptr %58, i32 0, i32 7
  %60 = load i32, ptr %59, align 8
  %61 = icmp eq i32 %60, 2
  br i1 %61, label %62, label %70

62:                                               ; preds = %57
  %63 = load ptr, ptr %4, align 8
  %64 = getelementptr inbounds nuw %struct.WaveFile, ptr %63, i32 0, i32 2
  %65 = getelementptr inbounds nuw %struct.WaveFact, ptr %64, i32 0, i32 0
  %66 = load i32, ptr %65, align 8
  %67 = icmp sle i32 %66, 0
  br i1 %67, label %68, label %70

68:                                               ; preds = %62
  %69 = call zeroext i1 (ptr, ...) @SDL_SetError_REAL(ptr noundef @.str.46)
  store i1 %69, ptr %3, align 1
  store i32 1, ptr %7, align 4
  br label %255

70:                                               ; preds = %62, %57
  br label %71

71:                                               ; preds = %52, %70
  %72 = load ptr, ptr %4, align 8
  %73 = getelementptr inbounds nuw %struct.WaveFile, ptr %72, i32 0, i32 0
  %74 = getelementptr inbounds nuw %struct.WaveChunk, ptr %73, i32 0, i32 4
  %75 = load i64, ptr %74, align 8
  %76 = icmp ult i64 %75, 16
  br i1 %76, label %77, label %79

77:                                               ; preds = %71
  %78 = call zeroext i1 (ptr, ...) @SDL_SetError_REAL(ptr noundef @.str.40)
  store i1 %78, ptr %3, align 1
  store i32 1, ptr %7, align 4
  br label %255

79:                                               ; preds = %71
  %80 = load ptr, ptr %6, align 8
  %81 = getelementptr inbounds nuw %struct.WaveFormat, ptr %80, i32 0, i32 6
  %82 = load i16, ptr %81, align 2
  %83 = zext i16 %82 to i32
  %84 = icmp eq i32 %83, 0
  br i1 %84, label %85, label %87

85:                                               ; preds = %79
  %86 = call zeroext i1 (ptr, ...) @SDL_SetError_REAL(ptr noundef @.str.47)
  store i1 %86, ptr %3, align 1
  store i32 1, ptr %7, align 4
  br label %255

87:                                               ; preds = %79
  br label %88

88:                                               ; preds = %87
  %89 = load ptr, ptr %6, align 8
  %90 = getelementptr inbounds nuw %struct.WaveFormat, ptr %89, i32 0, i32 5
  %91 = load i16, ptr %90, align 4
  %92 = zext i16 %91 to i32
  %93 = icmp eq i32 %92, 0
  br i1 %93, label %94, label %97

94:                                               ; preds = %88
  %95 = load ptr, ptr %6, align 8
  %96 = getelementptr inbounds nuw %struct.WaveFormat, ptr %95, i32 0, i32 5
  store i16 1, ptr %96, align 4
  br label %97

97:                                               ; preds = %94, %88
  %98 = load ptr, ptr %4, align 8
  %99 = getelementptr inbounds nuw %struct.WaveFile, ptr %98, i32 0, i32 2
  %100 = getelementptr inbounds nuw %struct.WaveFact, ptr %99, i32 0, i32 0
  %101 = load i32, ptr %100, align 8
  %102 = icmp eq i32 %101, 1
  br i1 %102, label %103, label %127

103:                                              ; preds = %97
  call void @llvm.lifetime.start.p0(i64 4, ptr %8) #7
  %104 = load ptr, ptr %4, align 8
  %105 = getelementptr inbounds nuw %struct.WaveFile, ptr %104, i32 0, i32 7
  %106 = load i32, ptr %105, align 8
  store i32 %106, ptr %8, align 4
  call void @llvm.lifetime.start.p0(i64 4, ptr %9) #7
  %107 = load ptr, ptr %4, align 8
  %108 = getelementptr inbounds nuw %struct.WaveFile, ptr %107, i32 0, i32 2
  %109 = getelementptr inbounds nuw %struct.WaveFact, ptr %108, i32 0, i32 1
  %110 = load i32, ptr %109, align 4
  store i32 %110, ptr %9, align 4
  %111 = load i32, ptr %8, align 4
  %112 = icmp eq i32 %111, 1
  br i1 %112, label %122, label %113

113:                                              ; preds = %103
  %114 = load i32, ptr %8, align 4
  %115 = icmp eq i32 %114, 2
  br i1 %115, label %122, label %116

116:                                              ; preds = %113
  %117 = load i32, ptr %8, align 4
  %118 = icmp eq i32 %117, 3
  br i1 %118, label %119, label %126

119:                                              ; preds = %116
  %120 = load i32, ptr %9, align 4
  %121 = icmp ugt i32 %120, 0
  br i1 %121, label %122, label %126

122:                                              ; preds = %119, %113, %103
  %123 = load ptr, ptr %4, align 8
  %124 = getelementptr inbounds nuw %struct.WaveFile, ptr %123, i32 0, i32 2
  %125 = getelementptr inbounds nuw %struct.WaveFact, ptr %124, i32 0, i32 0
  store i32 2, ptr %125, align 8
  br label %126

126:                                              ; preds = %122, %119, %116
  call void @llvm.lifetime.end.p0(i64 4, ptr %9) #7
  call void @llvm.lifetime.end.p0(i64 4, ptr %8) #7
  br label %127

127:                                              ; preds = %126, %97
  br label %128

128:                                              ; preds = %127, %52
  %129 = load ptr, ptr %6, align 8
  %130 = getelementptr inbounds nuw %struct.WaveFormat, ptr %129, i32 0, i32 1
  %131 = load i16, ptr %130, align 2
  %132 = zext i16 %131 to i32
  switch i32 %132, label %159 [
    i32 1, label %133
    i32 3, label %133
    i32 6, label %139
    i32 7, label %139
    i32 2, label %145
    i32 17, label %151
    i32 80, label %157
    i32 85, label %157
  ]

133:                                              ; preds = %128, %128
  %134 = load ptr, ptr %4, align 8
  %135 = load i64, ptr %5, align 8
  %136 = call zeroext i1 @PCM_Init(ptr noundef %134, i64 noundef %135)
  br i1 %136, label %138, label %137

137:                                              ; preds = %133
  store i1 false, ptr %3, align 1
  store i32 1, ptr %7, align 4
  br label %255

138:                                              ; preds = %133
  br label %254

139:                                              ; preds = %128, %128
  %140 = load ptr, ptr %4, align 8
  %141 = load i64, ptr %5, align 8
  %142 = call zeroext i1 @LAW_Init(ptr noundef %140, i64 noundef %141)
  br i1 %142, label %144, label %143

143:                                              ; preds = %139
  store i1 false, ptr %3, align 1
  store i32 1, ptr %7, align 4
  br label %255

144:                                              ; preds = %139
  br label %254

145:                                              ; preds = %128
  %146 = load ptr, ptr %4, align 8
  %147 = load i64, ptr %5, align 8
  %148 = call zeroext i1 @MS_ADPCM_Init(ptr noundef %146, i64 noundef %147)
  br i1 %148, label %150, label %149

149:                                              ; preds = %145
  store i1 false, ptr %3, align 1
  store i32 1, ptr %7, align 4
  br label %255

150:                                              ; preds = %145
  br label %254

151:                                              ; preds = %128
  %152 = load ptr, ptr %4, align 8
  %153 = load i64, ptr %5, align 8
  %154 = call zeroext i1 @IMA_ADPCM_Init(ptr noundef %152, i64 noundef %153)
  br i1 %154, label %156, label %155

155:                                              ; preds = %151
  store i1 false, ptr %3, align 1
  store i32 1, ptr %7, align 4
  br label %255

156:                                              ; preds = %151
  br label %254

157:                                              ; preds = %128, %128
  %158 = call zeroext i1 (ptr, ...) @SDL_SetError_REAL(ptr noundef @.str.48)
  store i1 %158, ptr %3, align 1
  store i32 1, ptr %7, align 4
  br label %255

159:                                              ; preds = %128
  %160 = load ptr, ptr %6, align 8
  %161 = getelementptr inbounds nuw %struct.WaveFormat, ptr %160, i32 0, i32 0
  %162 = load i16, ptr %161, align 4
  %163 = zext i16 %162 to i32
  %164 = icmp eq i32 %163, 65534
  br i1 %164, label %165, label %248

165:                                              ; preds = %159
  call void @llvm.lifetime.start.p0(i64 8, ptr %10) #7
  store ptr @.str.49, ptr %10, align 8
  call void @llvm.lifetime.start.p0(i64 8, ptr %11) #7
  %166 = load ptr, ptr %6, align 8
  %167 = getelementptr inbounds nuw %struct.WaveFormat, ptr %166, i32 0, i32 11
  %168 = getelementptr inbounds [16 x i8], ptr %167, i64 0, i64 0
  store ptr %168, ptr %11, align 8
  call void @llvm.lifetime.start.p0(i64 4, ptr %12) #7
  %169 = load ptr, ptr %11, align 8
  %170 = getelementptr inbounds i8, ptr %169, i64 0
  %171 = load i8, ptr %170, align 1
  %172 = zext i8 %171 to i32
  %173 = load ptr, ptr %11, align 8
  %174 = getelementptr inbounds i8, ptr %173, i64 1
  %175 = load i8, ptr %174, align 1
  %176 = zext i8 %175 to i32
  %177 = shl i32 %176, 8
  %178 = or i32 %172, %177
  %179 = load ptr, ptr %11, align 8
  %180 = getelementptr inbounds i8, ptr %179, i64 2
  %181 = load i8, ptr %180, align 1
  %182 = zext i8 %181 to i32
  %183 = shl i32 %182, 16
  %184 = or i32 %178, %183
  %185 = load ptr, ptr %11, align 8
  %186 = getelementptr inbounds i8, ptr %185, i64 3
  %187 = load i8, ptr %186, align 1
  %188 = zext i8 %187 to i32
  %189 = shl i32 %188, 24
  %190 = or i32 %184, %189
  store i32 %190, ptr %12, align 4
  call void @llvm.lifetime.start.p0(i64 4, ptr %13) #7
  %191 = load ptr, ptr %11, align 8
  %192 = getelementptr inbounds i8, ptr %191, i64 4
  %193 = load i8, ptr %192, align 1
  %194 = zext i8 %193 to i32
  %195 = load ptr, ptr %11, align 8
  %196 = getelementptr inbounds i8, ptr %195, i64 5
  %197 = load i8, ptr %196, align 1
  %198 = zext i8 %197 to i32
  %199 = shl i32 %198, 8
  %200 = or i32 %194, %199
  store i32 %200, ptr %13, align 4
  call void @llvm.lifetime.start.p0(i64 4, ptr %14) #7
  %201 = load ptr, ptr %11, align 8
  %202 = getelementptr inbounds i8, ptr %201, i64 6
  %203 = load i8, ptr %202, align 1
  %204 = zext i8 %203 to i32
  %205 = load ptr, ptr %11, align 8
  %206 = getelementptr inbounds i8, ptr %205, i64 7
  %207 = load i8, ptr %206, align 1
  %208 = zext i8 %207 to i32
  %209 = shl i32 %208, 8
  %210 = or i32 %204, %209
  store i32 %210, ptr %14, align 4
  %211 = load ptr, ptr %10, align 8
  %212 = load i32, ptr %12, align 4
  %213 = load i32, ptr %13, align 4
  %214 = load i32, ptr %14, align 4
  %215 = load ptr, ptr %11, align 8
  %216 = getelementptr inbounds i8, ptr %215, i64 8
  %217 = load i8, ptr %216, align 1
  %218 = zext i8 %217 to i32
  %219 = load ptr, ptr %11, align 8
  %220 = getelementptr inbounds i8, ptr %219, i64 9
  %221 = load i8, ptr %220, align 1
  %222 = zext i8 %221 to i32
  %223 = load ptr, ptr %11, align 8
  %224 = getelementptr inbounds i8, ptr %223, i64 10
  %225 = load i8, ptr %224, align 1
  %226 = zext i8 %225 to i32
  %227 = load ptr, ptr %11, align 8
  %228 = getelementptr inbounds i8, ptr %227, i64 11
  %229 = load i8, ptr %228, align 1
  %230 = zext i8 %229 to i32
  %231 = load ptr, ptr %11, align 8
  %232 = getelementptr inbounds i8, ptr %231, i64 12
  %233 = load i8, ptr %232, align 1
  %234 = zext i8 %233 to i32
  %235 = load ptr, ptr %11, align 8
  %236 = getelementptr inbounds i8, ptr %235, i64 13
  %237 = load i8, ptr %236, align 1
  %238 = zext i8 %237 to i32
  %239 = load ptr, ptr %11, align 8
  %240 = getelementptr inbounds i8, ptr %239, i64 14
  %241 = load i8, ptr %240, align 1
  %242 = zext i8 %241 to i32
  %243 = load ptr, ptr %11, align 8
  %244 = getelementptr inbounds i8, ptr %243, i64 15
  %245 = load i8, ptr %244, align 1
  %246 = zext i8 %245 to i32
  %247 = call zeroext i1 (ptr, ...) @SDL_SetError_REAL(ptr noundef %211, i32 noundef %212, i32 noundef %213, i32 noundef %214, i32 noundef %218, i32 noundef %222, i32 noundef %226, i32 noundef %230, i32 noundef %234, i32 noundef %238, i32 noundef %242, i32 noundef %246)
  store i1 %247, ptr %3, align 1
  store i32 1, ptr %7, align 4
  call void @llvm.lifetime.end.p0(i64 4, ptr %14) #7
  call void @llvm.lifetime.end.p0(i64 4, ptr %13) #7
  call void @llvm.lifetime.end.p0(i64 4, ptr %12) #7
  call void @llvm.lifetime.end.p0(i64 8, ptr %11) #7
  call void @llvm.lifetime.end.p0(i64 8, ptr %10) #7
  br label %255

248:                                              ; preds = %159
  %249 = load ptr, ptr %6, align 8
  %250 = getelementptr inbounds nuw %struct.WaveFormat, ptr %249, i32 0, i32 1
  %251 = load i16, ptr %250, align 2
  %252 = zext i16 %251 to i32
  %253 = call zeroext i1 (ptr, ...) @SDL_SetError_REAL(ptr noundef @.str.50, i32 noundef %252)
  store i1 %253, ptr %3, align 1
  store i32 1, ptr %7, align 4
  br label %255

254:                                              ; preds = %156, %150, %144, %138
  store i1 true, ptr %3, align 1
  store i32 1, ptr %7, align 4
  br label %255

255:                                              ; preds = %254, %248, %165, %157, %155, %149, %143, %137, %85, %77, %68, %50, %36, %29, %22
  call void @llvm.lifetime.end.p0(i64 8, ptr %6) #7
  %256 = load i1, ptr %3, align 1
  ret i1 %256
}