; Function Attrs: nounwind uwtable
define internal fastcc zeroext i1 @WaveCheckFormat(ptr noundef nonnull captures(none) %0, i64 noundef range(i64 0, 4294967296) %1) unnamed_addr #0 {
  %3 = getelementptr inbounds nuw i8, ptr %0, i64 32
  %4 = getelementptr inbounds nuw i8, ptr %0, i64 36
  %5 = load i16, ptr %4, align 4
  %6 = icmp eq i16 %5, 0
  br i1 %6, label %7, label %9

7:                                                ; preds = %2
  %8 = tail call zeroext i1 (ptr, ...) @SDL_SetError_REAL(ptr noundef nonnull @.str.42) #8
  br label %120

9:                                                ; preds = %2
  %10 = getelementptr inbounds nuw i8, ptr %0, i64 40
  %11 = load i32, ptr %10, align 4
  %12 = icmp eq i32 %11, 0
  br i1 %12, label %13, label %15

13:                                               ; preds = %9
  %14 = tail call zeroext i1 (ptr, ...) @SDL_SetError_REAL(ptr noundef nonnull @.str.43) #8
  br label %120

15:                                               ; preds = %9
  %16 = icmp slt i32 %11, 0
  br i1 %16, label %17, label %19

17:                                               ; preds = %15
  %18 = tail call zeroext i1 (ptr, ...) @SDL_SetError_REAL(ptr noundef nonnull @.str.44, i32 noundef 2147483647) #8
  br label %120

19:                                               ; preds = %15
  %20 = getelementptr inbounds nuw i8, ptr %0, i64 112
  %21 = load i32, ptr %20, align 8
  %22 = icmp eq i32 %21, 2
  br i1 %22, label %23, label %29

23:                                               ; preds = %19
  %24 = getelementptr inbounds nuw i8, ptr %0, i64 80
  %25 = load i32, ptr %24, align 8
  %26 = icmp eq i32 %25, -1
  br i1 %26, label %27, label %29

27:                                               ; preds = %23
  %28 = tail call zeroext i1 (ptr, ...) @SDL_SetError_REAL(ptr noundef nonnull @.str.45) #8
  br label %120

29:                                               ; preds = %23, %19
  %30 = getelementptr inbounds nuw i8, ptr %0, i64 34
  %31 = load i16, ptr %30, align 2
  switch i16 %31, label %68 [
    i16 3, label %32
    i16 6, label %32
    i16 7, label %32
    i16 2, label %32
    i16 17, label %32
    i16 1, label %39
  ]

32:                                               ; preds = %29, %29, %29, %29, %29
  br i1 %22, label %33, label %39

33:                                               ; preds = %32
  %34 = getelementptr inbounds nuw i8, ptr %0, i64 80
  %35 = load i32, ptr %34, align 8
  %36 = icmp slt i32 %35, 1
  br i1 %36, label %37, label %39

37:                                               ; preds = %33
  %38 = tail call zeroext i1 (ptr, ...) @SDL_SetError_REAL(ptr noundef nonnull @.str.46) #8
  br label %120

39:                                               ; preds = %32, %33, %29
  %40 = getelementptr inbounds nuw i8, ptr %0, i64 24
  %41 = load i64, ptr %40, align 8
  %42 = icmp ult i64 %41, 16
  br i1 %42, label %43, label %45

43:                                               ; preds = %39
  %44 = tail call zeroext i1 (ptr, ...) @SDL_SetError_REAL(ptr noundef nonnull @.str.40) #8
  br label %120

45:                                               ; preds = %39
  %46 = getelementptr inbounds nuw i8, ptr %0, i64 50
  %47 = load i16, ptr %46, align 2
  %48 = icmp eq i16 %47, 0
  br i1 %48, label %49, label %51

49:                                               ; preds = %45
  %50 = tail call zeroext i1 (ptr, ...) @SDL_SetError_REAL(ptr noundef nonnull @.str.47) #8
  br label %120

51:                                               ; preds = %45
  %52 = getelementptr inbounds nuw i8, ptr %0, i64 48
  %53 = load i16, ptr %52, align 4
  %54 = icmp eq i16 %53, 0
  br i1 %54, label %55, label %56

55:                                               ; preds = %51
  store i16 1, ptr %52, align 4
  br label %56

56:                                               ; preds = %55, %51
  %57 = getelementptr inbounds nuw i8, ptr %0, i64 80
  %58 = load i32, ptr %57, align 8
  %59 = icmp eq i32 %58, 1
  br i1 %59, label %60, label %68

60:                                               ; preds = %56
  %61 = add i32 %21, -1
  %or.cond = icmp ult i32 %61, 2
  br i1 %or.cond, label %67, label %62

62:                                               ; preds = %60
  %63 = getelementptr inbounds nuw i8, ptr %0, i64 84
  %64 = load i32, ptr %63, align 4
  %65 = icmp eq i32 %21, 3
  %66 = icmp ne i32 %64, 0
  %or.cond3 = select i1 %65, i1 %66, i1 false
  br i1 %or.cond3, label %67, label %68

67:                                               ; preds = %62, %60
  store i32 2, ptr %57, align 8
  br label %68

68:                                               ; preds = %62, %67, %56, %29
  %69 = zext i16 %31 to i32
  switch i16 %31, label %80 [
    i16 1, label %70
    i16 3, label %70
    i16 6, label %72
    i16 7, label %72
    i16 2, label %74
    i16 17, label %76
    i16 80, label %78
    i16 85, label %78
  ]

70:                                               ; preds = %68, %68
  %71 = tail call fastcc zeroext i1 @PCM_Init(ptr noundef %0, i64 noundef %1)
  br i1 %71, label %119, label %120

72:                                               ; preds = %68, %68
  %73 = tail call fastcc zeroext i1 @LAW_Init(ptr noundef %0, i64 noundef %1)
  br i1 %73, label %119, label %120

74:                                               ; preds = %68
  %75 = tail call fastcc zeroext i1 @MS_ADPCM_Init(ptr noundef %0, i64 noundef %1)
  br i1 %75, label %119, label %120

76:                                               ; preds = %68
  %77 = tail call fastcc zeroext i1 @IMA_ADPCM_Init(ptr noundef %0, i64 noundef %1)
  br i1 %77, label %119, label %120

78:                                               ; preds = %68, %68
  %79 = tail call zeroext i1 (ptr, ...) @SDL_SetError_REAL(ptr noundef nonnull @.str.48) #8
  br label %120

80:                                               ; preds = %68
  %81 = load i16, ptr %3, align 4
  %82 = icmp eq i16 %81, -2
  br i1 %82, label %83, label %117

83:                                               ; preds = %80
  %84 = getelementptr inbounds nuw i8, ptr %0, i64 64
  %85 = load i32, ptr %84, align 1
  %86 = getelementptr inbounds nuw i8, ptr %0, i64 68
  %87 = load i16, ptr %86, align 1
  %88 = zext i16 %87 to i32
  %89 = getelementptr inbounds nuw i8, ptr %0, i64 70
  %90 = load i16, ptr %89, align 1
  %91 = zext i16 %90 to i32
  %92 = getelementptr inbounds nuw i8, ptr %0, i64 72
  %93 = load i8, ptr %92, align 1
  %94 = zext i8 %93 to i32
  %95 = getelementptr inbounds nuw i8, ptr %0, i64 73
  %96 = load i8, ptr %95, align 1
  %97 = zext i8 %96 to i32
  %98 = getelementptr inbounds nuw i8, ptr %0, i64 74
  %99 = load i8, ptr %98, align 1
  %100 = zext i8 %99 to i32
  %101 = getelementptr inbounds nuw i8, ptr %0, i64 75
  %102 = load i8, ptr %101, align 1
  %103 = zext i8 %102 to i32
  %104 = getelementptr inbounds nuw i8, ptr %0, i64 76
  %105 = load i8, ptr %104, align 1
  %106 = zext i8 %105 to i32
  %107 = getelementptr inbounds nuw i8, ptr %0, i64 77
  %108 = load i8, ptr %107, align 1
  %109 = zext i8 %108 to i32
  %110 = getelementptr inbounds nuw i8, ptr %0, i64 78
  %111 = load i8, ptr %110, align 1
  %112 = zext i8 %111 to i32
  %113 = getelementptr inbounds nuw i8, ptr %0, i64 79
  %114 = load i8, ptr %113, align 1
  %115 = zext i8 %114 to i32
  %116 = tail call zeroext i1 (ptr, ...) @SDL_SetError_REAL(ptr noundef nonnull @.str.49, i32 noundef %85, i32 noundef %88, i32 noundef %91, i32 noundef %94, i32 noundef %97, i32 noundef %100, i32 noundef %103, i32 noundef %106, i32 noundef %109, i32 noundef %112, i32 noundef %115) #8
  br label %120

117:                                              ; preds = %80
  %118 = tail call zeroext i1 (ptr, ...) @SDL_SetError_REAL(ptr noundef nonnull @.str.50, i32 noundef %69) #8
  br label %120

119:                                              ; preds = %76, %74, %72, %70
  br label %120

120:                                              ; preds = %76, %74, %72, %70, %119, %117, %83, %78, %49, %43, %37, %27, %17, %13, %7
  %.0 = phi i1 [ %8, %7 ], [ %14, %13 ], [ %18, %17 ], [ %28, %27 ], [ %116, %83 ], [ %118, %117 ], [ %79, %78 ], [ true, %119 ], [ %44, %43 ], [ %50, %49 ], [ %38, %37 ], [ false, %70 ], [ false, %72 ], [ false, %74 ], [ false, %76 ]
  ret i1 %.0
}